target datalayout = "e-m:e-p270:32:32-p271:32:32-p272:64:64-i64:64-i128:128-f80:128-n8:16:32:64-S128"
target triple = "x86_64-pc-linux-gnu"

%struct.lua_State = type { %struct.GCRef, i8, i8, i8, i8, %struct.MRef, %struct.GCRef, ptr, ptr, %struct.MRef, %struct.MRef, %struct.GCRef, %struct.GCRef, ptr, i32 }
%struct.MRef = type { i64 }
%struct.GCRef = type { i64 }
%union.TValue = type { i64 }

; Function Attrs: nounwind uwtable
define internal i32 @lj_cf_table_sort(ptr noundef %0) #0 {
  %2 = alloca ptr, align 8
  %3 = alloca ptr, align 8
  %4 = alloca i32, align 4
  store ptr %0, ptr %2, align 8, !tbaa !4
  call void @llvm.lifetime.start.p0(i64 8, ptr %3) #7
  %5 = load ptr, ptr %2, align 8, !tbaa !4
  %6 = call ptr @lj_lib_checktab(ptr noundef %5, i32 noundef 1)
  store ptr %6, ptr %3, align 8, !tbaa !17
  call void @llvm.lifetime.start.p0(i64 4, ptr %4) #7
  %7 = load ptr, ptr %3, align 8, !tbaa !17
  %8 = call i32 @lj_tab_len(ptr noundef %7)
  store i32 %8, ptr %4, align 4, !tbaa !33
  %9 = load ptr, ptr %2, align 8, !tbaa !4
  call void @lua_settop(ptr noundef %9, i32 noundef 2)
  %10 = load ptr, ptr %2, align 8, !tbaa !4
  %11 = getelementptr inbounds nuw %struct.lua_State, ptr %10, i32 0, i32 7
  %12 = load ptr, ptr %11, align 8, !tbaa !34
  %13 = getelementptr inbounds %union.TValue, ptr %12, i64 1
  %14 = load i64, ptr %13, align 8, !tbaa !16
  %15 = icmp eq i64 %14, -1
  br i1 %15, label %19, label %16

16:                                               ; preds = %1
  %17 = load ptr, ptr %2, align 8, !tbaa !4
  %18 = call ptr @lj_lib_checkfunc(ptr noundef %17, i32 noundef 2)
  br label %19

19:                                               ; preds = %16, %1
  %20 = load ptr, ptr %2, align 8, !tbaa !4
  %21 = load i32, ptr %4, align 4, !tbaa !33
  call void @auxsort(ptr noundef %20, i32 noundef 1, i32 noundef %21)
  call void @llvm.lifetime.end.p0(i64 4, ptr %4) #7
  call void @llvm.lifetime.end.p0(i64 8, ptr %3) #7
  ret i32 0
}