; Function Attrs: nounwind uwtable
define internal noundef i32 @lj_cf_table_sort(ptr noundef %0) #0 {
  %2 = tail call ptr @lj_lib_checktab(ptr noundef %0, i32 noundef 1) #4
  %3 = tail call i32 @lj_tab_len(ptr noundef %2) #4
  tail call void @lua_settop(ptr noundef %0, i32 noundef 2) #4
  %4 = getelementptr inbounds nuw i8, ptr %0, i64 32
  %5 = load ptr, ptr %4, align 8, !tbaa !23
  %6 = getelementptr inbounds nuw i8, ptr %5, i64 8
  %7 = load i64, ptr %6, align 8, !tbaa !14
  %8 = icmp eq i64 %7, -1
  br i1 %8, label %11, label %9

9:                                                ; preds = %1
  %10 = tail call ptr @lj_lib_checkfunc(ptr noundef nonnull %0, i32 noundef 2) #4
  br label %11

11:                                               ; preds = %9, %1
  tail call fastcc void @auxsort(ptr noundef nonnull %0, i32 noundef 1, i32 noundef %3)
  ret i32 0
}